target datalayout = "e-m:e-p270:32:32-p271:32:32-p272:64:64-i64:64-i128:128-f80:128-n8:16:32:64-S128"
target triple = "x86_64-pc-linux-gnu"

%"struct.seq_util::rex::info" = type { i32, i8, i32, i32 }

; Function Attrs: mustprogress nounwind uwtable
define linkonce_odr hidden void @_ZN8seq_util3rex4infoC2Eb5lboolj(ptr noundef nonnull align 4 dereferenceable(16) %0, i1 noundef zeroext %1, i32 noundef %2, i32 noundef %3) unnamed_addr #6 comdat align 2 {
  %5 = alloca ptr, align 8
  %6 = alloca i8, align 1
  %7 = alloca i32, align 4
  %8 = alloca i32, align 4
  store ptr %0, ptr %5, align 8, !tbaa !301
  %9 = zext i1 %1 to i8
  store i8 %9, ptr %6, align 1, !tbaa !77
  store i32 %2, ptr %7, align 4, !tbaa !285
  store i32 %3, ptr %8, align 4, !tbaa !55
  %10 = load ptr, ptr %5, align 8
  %11 = getelementptr inbounds nuw %"struct.seq_util::rex::info", ptr %10, i32 0, i32 0
  store i32 1, ptr %11, align 4, !tbaa !302
  %12 = getelementptr inbounds nuw %"struct.seq_util::rex::info", ptr %10, i32 0, i32 1
  %13 = load i8, ptr %6, align 1, !tbaa !77, !range !78, !noundef !79
  %14 = trunc i8 %13 to i1
  %15 = zext i1 %14 to i8
  store i8 %15, ptr %12, align 4, !tbaa !303
  %16 = getelementptr inbounds nuw %"struct.seq_util::rex::info", ptr %10, i32 0, i32 2
  %17 = load i32, ptr %7, align 4, !tbaa !285
  store i32 %17, ptr %16, align 4, !tbaa !304
  %18 = getelementptr inbounds nuw %"struct.seq_util::rex::info", ptr %10, i32 0, i32 3
  %19 = load i32, ptr %8, align 4, !tbaa !55
  store i32 %19, ptr %18, align 4, !tbaa !283
  ret void
}

; Function Attrs: mustprogress nounwind uwtable
define linkonce_odr hidden noundef zeroext i1 @_ZNK8seq_util3rex4info8is_knownEv(ptr noundef nonnull align 4 dereferenceable(16) %0) #6 comdat align 2 {
  %2 = alloca ptr, align 8
  store ptr %0, ptr %2, align 8, !tbaa !301
  %3 = load ptr, ptr %2, align 8
  %4 = getelementptr inbounds nuw %"struct.seq_util::rex::info", ptr %3, i32 0, i32 0
  %5 = load i32, ptr %4, align 4, !tbaa !302
  %6 = icmp eq i32 %5, 1
  ret i1 %6
}

; Function Attrs: mustprogress uwtable
define hidden { i64, i64 } @_ZNK8seq_util3rex4info6concatERKS1_b(ptr noundef nonnull align 4 dereferenceable(16) %0, ptr noundef nonnull align 4 dereferenceable(16) %1, i1 noundef zeroext %2) #4 align 2 {
  %4 = alloca %"struct.seq_util::rex::info", align 4
  %5 = alloca ptr, align 8
  %6 = alloca ptr, align 8
  %7 = alloca i8, align 1
  %8 = alloca i32, align 4
  store ptr %0, ptr %5, align 8, !tbaa !301
  store ptr %1, ptr %6, align 8, !tbaa !301
  %9 = zext i1 %2 to i8
  store i8 %9, ptr %7, align 1, !tbaa !77
  %10 = load ptr, ptr %5, align 8
  %11 = call noundef zeroext i1 @_ZNK8seq_util3rex4info8is_knownEv(ptr noundef nonnull align 4 dereferenceable(16) %10)
  br i1 %11, label %12, label %70

12:                                               ; preds = %3
  %13 = load ptr, ptr %6, align 8, !tbaa !301
  %14 = call noundef zeroext i1 @_ZNK8seq_util3rex4info8is_knownEv(ptr noundef nonnull align 4 dereferenceable(16) %13)
  br i1 %14, label %15, label %68

15:                                               ; preds = %12
  call void @llvm.lifetime.start.p0(i64 4, ptr %8) #3
  %16 = getelementptr inbounds nuw %"struct.seq_util::rex::info", ptr %10, i32 0, i32 3
  %17 = load i32, ptr %16, align 4, !tbaa !283
  %18 = load ptr, ptr %6, align 8, !tbaa !301
  %19 = getelementptr inbounds nuw %"struct.seq_util::rex::info", ptr %18, i32 0, i32 3
  %20 = load i32, ptr %19, align 4, !tbaa !283
  %21 = add i32 %17, %20
  store i32 %21, ptr %8, align 4, !tbaa !55
  %22 = load i32, ptr %8, align 4, !tbaa !55
  %23 = getelementptr inbounds nuw %"struct.seq_util::rex::info", ptr %10, i32 0, i32 3
  %24 = load i32, ptr %23, align 4, !tbaa !283
  %25 = icmp ult i32 %22, %24
  br i1 %25, label %32, label %26

26:                                               ; preds = %15
  %27 = load i32, ptr %8, align 4, !tbaa !55
  %28 = load ptr, ptr %6, align 8, !tbaa !301
  %29 = getelementptr inbounds nuw %"struct.seq_util::rex::info", ptr %28, i32 0, i32 3
  %30 = load i32, ptr %29, align 4, !tbaa !283
  %31 = icmp ult i32 %27, %30
  br i1 %31, label %32, label %33

32:                                               ; preds = %26, %15
  store i32 -1, ptr %8, align 4, !tbaa !55
  br label %33

33:                                               ; preds = %32, %26
  %34 = getelementptr inbounds nuw %"struct.seq_util::rex::info", ptr %10, i32 0, i32 1
  %35 = load i8, ptr %34, align 4, !tbaa !303, !range !78, !noundef !79
  %36 = trunc i8 %35 to i1
  br i1 %36, label %37, label %42

37:                                               ; preds = %33
  %38 = load ptr, ptr %6, align 8, !tbaa !301
  %39 = getelementptr inbounds nuw %"struct.seq_util::rex::info", ptr %38, i32 0, i32 1
  %40 = load i8, ptr %39, align 4, !tbaa !303, !range !78, !noundef !79
  %41 = trunc i8 %40 to i1
  br label %42

42:                                               ; preds = %37, %33
  %43 = phi i1 [ false, %33 ], [ %41, %37 ]
  %44 = getelementptr inbounds nuw %"struct.seq_util::rex::info", ptr %10, i32 0, i32 2
  %45 = load i32, ptr %44, align 4, !tbaa !304
  %46 = icmp eq i32 %45, -1
  br i1 %46, label %52, label %47

47:                                               ; preds = %42
  %48 = load ptr, ptr %6, align 8, !tbaa !301
  %49 = getelementptr inbounds nuw %"struct.seq_util::rex::info", ptr %48, i32 0, i32 2
  %50 = load i32, ptr %49, align 4, !tbaa !304
  %51 = icmp eq i32 %50, -1
  br i1 %51, label %52, label %53

52:                                               ; preds = %47, %42
  br label %65

53:                                               ; preds = %47
  %54 = getelementptr inbounds nuw %"struct.seq_util::rex::info", ptr %10, i32 0, i32 2
  %55 = load i32, ptr %54, align 4, !tbaa !304
  %56 = icmp eq i32 %55, 1
  br i1 %56, label %57, label %62

57:                                               ; preds = %53
  %58 = load ptr, ptr %6, align 8, !tbaa !301
  %59 = getelementptr inbounds nuw %"struct.seq_util::rex::info", ptr %58, i32 0, i32 2
  %60 = load i32, ptr %59, align 4, !tbaa !304
  %61 = icmp eq i32 %60, 1
  br label %62

62:                                               ; preds = %57, %53
  %63 = phi i1 [ false, %53 ], [ %61, %57 ]
  %64 = select i1 %63, i32 1, i32 0
  br label %65

65:                                               ; preds = %62, %52
  %66 = phi i32 [ -1, %52 ], [ %64, %62 ]
  %67 = load i32, ptr %8, align 4, !tbaa !55
  call void @_ZN8seq_util3rex4infoC2Eb5lboolj(ptr noundef nonnull align 4 dereferenceable(16) %4, i1 noundef zeroext %43, i32 noundef %66, i32 noundef %67)
  call void @llvm.lifetime.end.p0(i64 4, ptr %8) #3
  br label %71

68:                                               ; preds = %12
  %69 = load ptr, ptr %6, align 8, !tbaa !301
  call void @llvm.memcpy.p0.p0.i64(ptr align 4 %4, ptr align 4 %69, i64 16, i1 false), !tbaa.struct !284
  br label %71

70:                                               ; preds = %3
  call void @llvm.memcpy.p0.p0.i64(ptr align 4 %4, ptr align 4 %10, i64 16, i1 false), !tbaa.struct !284
  br label %71

71:                                               ; preds = %70, %68, %65
  %72 = load { i64, i64 }, ptr %4, align 4
  ret { i64, i64 } %72
}