; Function Attrs: mustprogress nofree norecurse nosync nounwind willreturn memory(argmem: read) uwtable
define hidden { i64, i64 } @_ZNK8seq_util3rex4info6concatERKS1_b(ptr noundef nonnull readonly align 4 captures(none) dereferenceable(16) %0, ptr noundef nonnull readonly align 4 captures(none) dereferenceable(16) %1, i1 noundef zeroext %2) local_unnamed_addr #14 align 2 {
  %4 = load i32, ptr %0, align 4, !tbaa !208
  %5 = icmp eq i32 %4, 1
  br i1 %5, label %6, label %33

6:                                                ; preds = %3
  %7 = load i32, ptr %1, align 4, !tbaa !208
  %8 = icmp eq i32 %7, 1
  br i1 %8, label %9, label %32

9:                                                ; preds = %6
  %10 = getelementptr inbounds nuw i8, ptr %0, i64 12
  %11 = load i32, ptr %10, align 4, !tbaa !211
  %12 = getelementptr inbounds nuw i8, ptr %1, i64 12
  %13 = load i32, ptr %12, align 4, !tbaa !211
  %. = tail call i32 @llvm.uadd.sat.i32(i32 %11, i32 %13)
  %14 = getelementptr inbounds nuw i8, ptr %0, i64 4
  %15 = load i8, ptr %14, align 4, !tbaa !209, !range !81, !noundef !82
  %16 = trunc nuw i8 %15 to i1
  %17 = getelementptr inbounds nuw i8, ptr %1, i64 4
  %18 = load i8, ptr %17, align 4, !range !81
  %19 = select i1 %16, i8 %18, i8 0
  %20 = getelementptr inbounds nuw i8, ptr %0, i64 8
  %21 = load i32, ptr %20, align 4, !tbaa !210
  %22 = icmp eq i32 %21, -1
  br i1 %22, label %31, label %23

23:                                               ; preds = %9
  %24 = getelementptr inbounds nuw i8, ptr %1, i64 8
  %25 = load i32, ptr %24, align 4, !tbaa !210
  %26 = icmp eq i32 %25, -1
  br i1 %26, label %31, label %27

27:                                               ; preds = %23
  %28 = icmp eq i32 %21, 1
  %29 = icmp eq i32 %25, 1
  %narrow = and i1 %28, %29
  %30 = zext i1 %narrow to i64
  br label %31

31:                                               ; preds = %9, %23, %27
  %.sroa.5.8.insert.ext = phi i64 [ %30, %27 ], [ 4294967295, %23 ], [ 4294967295, %9 ]
  %.sroa.5.12.insert.ext = zext i32 %. to i64
  %.sroa.5.12.insert.shift = shl nuw i64 %.sroa.5.12.insert.ext, 32
  %.sroa.5.12.insert.insert = or disjoint i64 %.sroa.5.8.insert.ext, %.sroa.5.12.insert.shift
  br label %34

32:                                               ; preds = %6
  %.sroa.0.0.copyload = load i64, ptr %1, align 4
  %.sroa.0.sroa.4.0.extract.shift = lshr i64 %.sroa.0.0.copyload, 32
  %.sroa.0.sroa.4.0.extract.trunc = trunc i64 %.sroa.0.sroa.4.0.extract.shift to i8
  %.sroa.0.sroa.5.0.extract.shift = and i64 %.sroa.0.0.copyload, -1099511627776
  %.sroa.5.0..sroa_idx = getelementptr inbounds nuw i8, ptr %1, i64 8
  %.sroa.5.0.copyload = load i64, ptr %.sroa.5.0..sroa_idx, align 4
  br label %34

33:                                               ; preds = %3
  %.sroa.0.0.copyload13 = load i64, ptr %0, align 4
  %.sroa.0.sroa.4.0.extract.shift17 = lshr i64 %.sroa.0.0.copyload13, 32
  %.sroa.0.sroa.4.0.extract.trunc18 = trunc i64 %.sroa.0.sroa.4.0.extract.shift17 to i8
  %.sroa.0.sroa.5.0.extract.shift19 = and i64 %.sroa.0.0.copyload13, -1099511627776
  %.sroa.5.0..sroa_idx14 = getelementptr inbounds nuw i8, ptr %0, i64 8
  %.sroa.5.0.copyload15 = load i64, ptr %.sroa.5.0..sroa_idx14, align 4
  br label %34

34:                                               ; preds = %33, %32, %31
  %.sroa.0.sroa.5.sroa.0.0 = phi i64 [ 0, %31 ], [ %.sroa.0.sroa.5.0.extract.shift, %32 ], [ %.sroa.0.sroa.5.0.extract.shift19, %33 ]
  %.sroa.0.sroa.4.0 = phi i8 [ %19, %31 ], [ %.sroa.0.sroa.4.0.extract.trunc, %32 ], [ %.sroa.0.sroa.4.0.extract.trunc18, %33 ]
  %.sroa.0.sroa.0.0 = phi i64 [ 1, %31 ], [ %.sroa.0.0.copyload, %32 ], [ %.sroa.0.0.copyload13, %33 ]
  %.sroa.5.0 = phi i64 [ %.sroa.5.12.insert.insert, %31 ], [ %.sroa.5.0.copyload, %32 ], [ %.sroa.5.0.copyload15, %33 ]
  %.sroa.0.sroa.4.0.insert.ext = zext i8 %.sroa.0.sroa.4.0 to i64
  %.sroa.0.sroa.4.0.insert.shift = shl nuw nsw i64 %.sroa.0.sroa.4.0.insert.ext, 32
  %.sroa.0.sroa.4.0.insert.insert = or disjoint i64 %.sroa.0.sroa.4.0.insert.shift, %.sroa.0.sroa.5.sroa.0.0
  %.sroa.0.sroa.0.0.insert.ext = and i64 %.sroa.0.sroa.0.0, 4294967295
  %.sroa.0.sroa.0.0.insert.insert = or disjoint i64 %.sroa.0.sroa.4.0.insert.insert, %.sroa.0.sroa.0.0.insert.ext
  %.fca.0.insert = insertvalue { i64, i64 } poison, i64 %.sroa.0.sroa.0.0.insert.insert, 0
  %.fca.1.insert = insertvalue { i64, i64 } %.fca.0.insert, i64 %.sroa.5.0, 1
  ret { i64, i64 } %.fca.1.insert
}